target datalayout = "e-m:e-p270:32:32-p271:32:32-p272:64:64-i64:64-i128:128-f80:128-n8:16:32:64-S128"
target triple = "x86_64-pc-linux-gnu"

%"class.Ipopt::Matrix" = type <{ %"class.Ipopt::TaggedObject", %"class.Ipopt::SmartPtr", i32, i8, [3 x i8] }>
%"class.Ipopt::TaggedObject" = type { %"class.Ipopt::ReferencedObject.base", %"class.Ipopt::Subject", i32, i32 }
%"class.Ipopt::ReferencedObject.base" = type <{ ptr, i32 }>
%"class.Ipopt::Subject" = type { ptr, %"class.std::vector" }
%"class.std::vector" = type { %"struct.std::_Vector_base" }
%"struct.std::_Vector_base" = type { %"struct.std::_Vector_base<Ipopt::Observer *, std::allocator<Ipopt::Observer *>>::_Vector_impl" }
%"struct.std::_Vector_base<Ipopt::Observer *, std::allocator<Ipopt::Observer *>>::_Vector_impl" = type { %"struct.std::_Vector_base<Ipopt::Observer *, std::allocator<Ipopt::Observer *>>::_Vector_impl_data" }
%"struct.std::_Vector_base<Ipopt::Observer *, std::allocator<Ipopt::Observer *>>::_Vector_impl_data" = type { ptr, ptr, ptr }
%"class.Ipopt::SmartPtr" = type { ptr }
%"class.Ipopt::DenseGenMatrix" = type { %"class.Ipopt::Matrix.base", ptr, ptr, i8, i32, ptr }
%"class.Ipopt::Matrix.base" = type <{ %"class.Ipopt::TaggedObject", %"class.Ipopt::SmartPtr", i32, i8 }>
%"class.Ipopt::MatrixSpace" = type { %"class.Ipopt::ReferencedObject.base", i32, i32, [4 x i8] }

; Function Attrs: mustprogress nounwind uwtable
define linkonce_odr noundef i32 @_ZNK5Ipopt11MatrixSpace5NRowsEv(ptr noundef nonnull align 8 dereferenceable(20) %0) #0 comdat align 2 {
  %2 = alloca ptr, align 8
  store ptr %0, ptr %2, align 8, !tbaa !37
  %3 = load ptr, ptr %2, align 8
  %4 = getelementptr inbounds nuw %"class.Ipopt::MatrixSpace", ptr %3, i32 0, i32 1
  %5 = load i32, ptr %4, align 4, !tbaa !102
  ret i32 %5
}

; Function Attrs: mustprogress nounwind uwtable
define linkonce_odr noundef ptr @_ZNK5Ipopt8SmartPtrIKNS_11MatrixSpaceEEptEv(ptr noundef nonnull align 8 dereferenceable(8) %0) #0 comdat align 2 {
  %2 = alloca ptr, align 8
  store ptr %0, ptr %2, align 8, !tbaa !107
  %3 = load ptr, ptr %2, align 8
  %4 = getelementptr inbounds nuw %"class.Ipopt::SmartPtr", ptr %3, i32 0, i32 0
  %5 = load ptr, ptr %4, align 8, !tbaa !109
  ret ptr %5
}

; Function Attrs: inlinehint mustprogress uwtable
define linkonce_odr noundef i32 @_ZNK5Ipopt6Matrix5NRowsEv(ptr noundef nonnull align 8 dereferenceable(69) %0) #3 comdat align 2 {
  %2 = alloca ptr, align 8
  store ptr %0, ptr %2, align 8, !tbaa !3
  %3 = load ptr, ptr %2, align 8
  %4 = getelementptr inbounds nuw %"class.Ipopt::Matrix", ptr %3, i32 0, i32 1
  %5 = call noundef ptr @_ZNK5Ipopt8SmartPtrIKNS_11MatrixSpaceEEptEv(ptr noundef nonnull align 8 dereferenceable(8) %4)
  %6 = call noundef i32 @_ZNK5Ipopt11MatrixSpace5NRowsEv(ptr noundef nonnull align 8 dereferenceable(20) %5)
  ret i32 %6
}

; Function Attrs: mustprogress uwtable
define noundef zeroext i1 @_ZN5Ipopt14DenseGenMatrix22ComputeLUFactorInPlaceEv(ptr noundef nonnull align 8 dereferenceable(104) %0) #2 align 2 {
  %2 = alloca i1, align 1
  %3 = alloca ptr, align 8
  %4 = alloca i32, align 4
  %5 = alloca i32, align 4
  %6 = alloca i32, align 4
  store ptr %0, ptr %3, align 8, !tbaa !10
  %7 = load ptr, ptr %3, align 8
  call void @llvm.lifetime.start.p0(i64 4, ptr %4) #16
  %8 = call noundef i32 @_ZNK5Ipopt6Matrix5NRowsEv(ptr noundef nonnull align 8 dereferenceable(69) %7)
  store i32 %8, ptr %4, align 4, !tbaa !42
  call void @_ZN5Ipopt12TaggedObject13ObjectChangedEv(ptr noundef nonnull align 8 dereferenceable(56) %7)
  %9 = getelementptr inbounds nuw %"class.Ipopt::DenseGenMatrix", ptr %7, i32 0, i32 5
  %10 = load ptr, ptr %9, align 8, !tbaa !36
  %11 = icmp eq ptr %10, null
  br i1 %11, label %13, label %12

12:                                               ; preds = %1
  call void @_ZdaPv(ptr noundef %10) #18
  br label %13

13:                                               ; preds = %12, %1
  %14 = getelementptr inbounds nuw %"class.Ipopt::DenseGenMatrix", ptr %7, i32 0, i32 5
  store ptr null, ptr %14, align 8, !tbaa !36
  %15 = load i32, ptr %4, align 4, !tbaa !42
  %16 = sext i32 %15 to i64
  %17 = call { i64, i1 } @llvm.umul.with.overflow.i64(i64 %16, i64 4)
  %18 = extractvalue { i64, i1 } %17, 1
  %19 = extractvalue { i64, i1 } %17, 0
  %20 = select i1 %18, i64 -1, i64 %19
  %21 = call noalias noundef nonnull ptr @_Znam(i64 noundef %20) #17
  %22 = getelementptr inbounds nuw %"class.Ipopt::DenseGenMatrix", ptr %7, i32 0, i32 5
  store ptr %21, ptr %22, align 8, !tbaa !36
  call void @llvm.lifetime.start.p0(i64 4, ptr %5) #16
  %23 = load i32, ptr %4, align 4, !tbaa !42
  %24 = getelementptr inbounds nuw %"class.Ipopt::DenseGenMatrix", ptr %7, i32 0, i32 2
  %25 = load ptr, ptr %24, align 8, !tbaa !33
  %26 = getelementptr inbounds nuw %"class.Ipopt::DenseGenMatrix", ptr %7, i32 0, i32 5
  %27 = load ptr, ptr %26, align 8, !tbaa !36
  %28 = load i32, ptr %4, align 4, !tbaa !42
  call void @_ZN5Ipopt13IpLapackGetrfEiPdPiiRi(i32 noundef %23, ptr noundef %25, ptr noundef %27, i32 noundef %28, ptr noundef nonnull align 4 dereferenceable(4) %5)
  %29 = load i32, ptr %5, align 4, !tbaa !42
  %30 = icmp ne i32 %29, 0
  br i1 %30, label %31, label %39

31:                                               ; preds = %13
  %32 = getelementptr inbounds nuw %"class.Ipopt::DenseGenMatrix", ptr %7, i32 0, i32 5
  %33 = load ptr, ptr %32, align 8, !tbaa !36
  %34 = icmp eq ptr %33, null
  br i1 %34, label %36, label %35

35:                                               ; preds = %31
  call void @_ZdaPv(ptr noundef %33) #18
  br label %36

36:                                               ; preds = %35, %31
  %37 = getelementptr inbounds nuw %"class.Ipopt::DenseGenMatrix", ptr %7, i32 0, i32 5
  store ptr null, ptr %37, align 8, !tbaa !36
  %38 = getelementptr inbounds nuw %"class.Ipopt::DenseGenMatrix", ptr %7, i32 0, i32 3
  store i8 0, ptr %38, align 8, !tbaa !34
  store i1 false, ptr %2, align 1
  store i32 1, ptr %6, align 4
  br label %43

39:                                               ; preds = %13
  %40 = getelementptr inbounds nuw %"class.Ipopt::DenseGenMatrix", ptr %7, i32 0, i32 3
  store i8 1, ptr %40, align 8, !tbaa !34
  br label %41

41:                                               ; preds = %39
  %42 = getelementptr inbounds nuw %"class.Ipopt::DenseGenMatrix", ptr %7, i32 0, i32 4
  store i32 1, ptr %42, align 4, !tbaa !35
  store i1 true, ptr %2, align 1
  store i32 1, ptr %6, align 4
  br label %43

43:                                               ; preds = %41, %36
  call void @llvm.lifetime.end.p0(i64 4, ptr %5) #16
  call void @llvm.lifetime.end.p0(i64 4, ptr %4) #16
  %44 = load i1, ptr %2, align 1
  ret i1 %44
}