; Function Attrs: mustprogress uwtable
define noundef zeroext i1 @_ZN5Ipopt14DenseGenMatrix22ComputeLUFactorInPlaceEv(ptr noundef nonnull align 8 dereferenceable(104) %0) local_unnamed_addr #2 align 2 {
  %2 = alloca i32, align 4
  %3 = getelementptr inbounds nuw i8, ptr %0, i64 56
  %4 = load ptr, ptr %3, align 8, !tbaa !6
  %5 = getelementptr inbounds nuw i8, ptr %4, i64 12
  %6 = load i32, ptr %5, align 4, !tbaa !33
  tail call void @_ZN5Ipopt12TaggedObject13ObjectChangedEv(ptr noundef nonnull align 8 dereferenceable(56) %0)
  %7 = getelementptr inbounds nuw i8, ptr %0, i64 96
  %8 = load ptr, ptr %7, align 8, !tbaa !37
  %9 = icmp eq ptr %8, null
  br i1 %9, label %11, label %10

10:                                               ; preds = %1
  tail call void @_ZdaPv(ptr noundef nonnull %8) #22
  br label %11

11:                                               ; preds = %10, %1
  store ptr null, ptr %7, align 8, !tbaa !37
  %12 = sext i32 %6 to i64
  %13 = icmp slt i32 %6, 0
  %14 = shl nsw i64 %12, 2
  %15 = select i1 %13, i64 -1, i64 %14
  %16 = tail call noalias noundef nonnull ptr @_Znam(i64 noundef %15) #21
  store ptr %16, ptr %7, align 8, !tbaa !37
  call void @llvm.lifetime.start.p0(i64 4, ptr nonnull %2) #20
  %17 = getelementptr inbounds nuw i8, ptr %0, i64 80
  %18 = load ptr, ptr %17, align 8, !tbaa !34
  call void @_ZN5Ipopt13IpLapackGetrfEiPdPiiRi(i32 noundef %6, ptr noundef %18, ptr noundef nonnull %16, i32 noundef %6, ptr noundef nonnull align 4 dereferenceable(4) %2)
  %19 = load i32, ptr %2, align 4, !tbaa !51
  %.not = icmp eq i32 %19, 0
  br i1 %.not, label %26, label %20

20:                                               ; preds = %11
  %21 = load ptr, ptr %7, align 8, !tbaa !37
  %22 = icmp eq ptr %21, null
  br i1 %22, label %24, label %23

23:                                               ; preds = %20
  call void @_ZdaPv(ptr noundef nonnull %21) #22
  br label %24

24:                                               ; preds = %23, %20
  store ptr null, ptr %7, align 8, !tbaa !37
  %25 = getelementptr inbounds nuw i8, ptr %0, i64 88
  store i8 0, ptr %25, align 8, !tbaa !35
  br label %29

26:                                               ; preds = %11
  %27 = getelementptr inbounds nuw i8, ptr %0, i64 88
  store i8 1, ptr %27, align 8, !tbaa !35
  %28 = getelementptr inbounds nuw i8, ptr %0, i64 92
  store i32 1, ptr %28, align 4, !tbaa !36
  br label %29

29:                                               ; preds = %26, %24
  call void @llvm.lifetime.end.p0(i64 4, ptr nonnull %2) #20
  ret i1 %.not
}